target datalayout = "e-m:e-p270:32:32-p271:32:32-p272:64:64-i64:64-i128:128-f80:128-n8:16:32:64-S128"
target triple = "x86_64-pc-linux-gnu"

%struct.conf_module_st = type { ptr, ptr, ptr, ptr, i32, ptr }
%struct.conf_imodule_st = type { ptr, ptr, ptr, i64, ptr }

@.str.1 = private unnamed_addr constant [34 x i8] c"../openssl/crypto/conf/conf_mod.c\00", align 1
@module_list_lock = internal global ptr null, align 8
@init_module_list_lock = internal global i32 0, align 4
@do_init_module_list_lock_ossl_ret_ = internal global i32 0, align 4
@initialized_modules = internal global ptr null, align 8

; Function Attrs: inlinehint nounwind uwtable
define internal void @sk_CONF_IMODULE_free(ptr noundef %0) #3 {
  %2 = alloca ptr, align 8
  store ptr %0, ptr %2, align 8, !tbaa !40
  %3 = load ptr, ptr %2, align 8, !tbaa !40
  call void @OPENSSL_sk_free(ptr noundef %3)
  ret void
}

; Function Attrs: nounwind uwtable
define internal void @module_finish(ptr noundef %0) #0 {
  %2 = alloca ptr, align 8
  store ptr %0, ptr %2, align 8, !tbaa !42
  %3 = load ptr, ptr %2, align 8, !tbaa !42
  %4 = icmp ne ptr %3, null
  br i1 %4, label %6, label %5

5:                                                ; preds = %1
  br label %34

6:                                                ; preds = %1
  %7 = load ptr, ptr %2, align 8, !tbaa !42
  %8 = getelementptr inbounds nuw %struct.conf_imodule_st, ptr %7, i32 0, i32 0
  %9 = load ptr, ptr %8, align 8, !tbaa !53
  %10 = getelementptr inbounds nuw %struct.conf_module_st, ptr %9, i32 0, i32 3
  %11 = load ptr, ptr %10, align 8, !tbaa !48
  %12 = icmp ne ptr %11, null
  br i1 %12, label %13, label %20

13:                                               ; preds = %6
  %14 = load ptr, ptr %2, align 8, !tbaa !42
  %15 = getelementptr inbounds nuw %struct.conf_imodule_st, ptr %14, i32 0, i32 0
  %16 = load ptr, ptr %15, align 8, !tbaa !53
  %17 = getelementptr inbounds nuw %struct.conf_module_st, ptr %16, i32 0, i32 3
  %18 = load ptr, ptr %17, align 8, !tbaa !48
  %19 = load ptr, ptr %2, align 8, !tbaa !42
  call void %18(ptr noundef %19)
  br label %20

20:                                               ; preds = %13, %6
  %21 = load ptr, ptr %2, align 8, !tbaa !42
  %22 = getelementptr inbounds nuw %struct.conf_imodule_st, ptr %21, i32 0, i32 0
  %23 = load ptr, ptr %22, align 8, !tbaa !53
  %24 = getelementptr inbounds nuw %struct.conf_module_st, ptr %23, i32 0, i32 4
  %25 = load i32, ptr %24, align 8, !tbaa !35
  %26 = add nsw i32 %25, -1
  store i32 %26, ptr %24, align 8, !tbaa !35
  %27 = load ptr, ptr %2, align 8, !tbaa !42
  %28 = getelementptr inbounds nuw %struct.conf_imodule_st, ptr %27, i32 0, i32 1
  %29 = load ptr, ptr %28, align 8, !tbaa !49
  call void @CRYPTO_free(ptr noundef %29, ptr noundef @.str.1, i32 noundef 615)
  %30 = load ptr, ptr %2, align 8, !tbaa !42
  %31 = getelementptr inbounds nuw %struct.conf_imodule_st, ptr %30, i32 0, i32 2
  %32 = load ptr, ptr %31, align 8, !tbaa !51
  call void @CRYPTO_free(ptr noundef %32, ptr noundef @.str.1, i32 noundef 616)
  %33 = load ptr, ptr %2, align 8, !tbaa !42
  call void @CRYPTO_free(ptr noundef %33, ptr noundef @.str.1, i32 noundef 617)
  br label %34

34:                                               ; preds = %20, %5
  ret void
}

; Function Attrs: inlinehint nounwind uwtable
define internal ptr @sk_CONF_IMODULE_pop(ptr noundef %0) #3 {
  %2 = alloca ptr, align 8
  store ptr %0, ptr %2, align 8, !tbaa !40
  %3 = load ptr, ptr %2, align 8, !tbaa !40
  %4 = call ptr @OPENSSL_sk_pop(ptr noundef %3)
  ret ptr %4
}

; Function Attrs: inlinehint nounwind uwtable
define internal i32 @sk_CONF_IMODULE_num(ptr noundef %0) #3 {
  %2 = alloca ptr, align 8
  store ptr %0, ptr %2, align 8, !tbaa !40
  %3 = load ptr, ptr %2, align 8, !tbaa !40
  %4 = call i32 @OPENSSL_sk_num(ptr noundef %3)
  ret i32 %4
}

; Function Attrs: nounwind uwtable
define internal i32 @conf_modules_finish_int() #0 {
  %1 = alloca i32, align 4
  %2 = alloca ptr, align 8
  %3 = alloca ptr, align 8
  %4 = alloca ptr, align 8
  %5 = alloca i32, align 4
  call void @llvm.lifetime.start.p0(i64 8, ptr %2) #6
  call void @llvm.lifetime.start.p0(i64 8, ptr %3) #6
  call void @llvm.lifetime.start.p0(i64 8, ptr %4) #6
  store ptr null, ptr %4, align 8, !tbaa !40
  %6 = call i32 @CRYPTO_THREAD_run_once(ptr noundef @init_module_list_lock, ptr noundef @do_init_module_list_lock_ossl_)
  %7 = icmp ne i32 %6, 0
  br i1 %7, label %8, label %11

8:                                                ; preds = %0
  %9 = load i32, ptr @do_init_module_list_lock_ossl_ret_, align 4, !tbaa !14
  %10 = icmp ne i32 %9, 0
  br i1 %10, label %13, label %12

11:                                               ; preds = %0
  br i1 false, label %13, label %12

12:                                               ; preds = %11, %8
  store i32 0, ptr %1, align 4
  store i32 1, ptr %5, align 4
  br label %32

13:                                               ; preds = %11, %8
  %14 = load ptr, ptr @module_list_lock, align 8, !tbaa !31
  %15 = icmp eq ptr %14, null
  br i1 %15, label %16, label %17

16:                                               ; preds = %13
  store i32 0, ptr %1, align 4
  store i32 1, ptr %5, align 4
  br label %32

17:                                               ; preds = %13
  %18 = load ptr, ptr @module_list_lock, align 8, !tbaa !31
  call void @ossl_rcu_write_lock(ptr noundef %18)
  %19 = call ptr @ossl_rcu_uptr_deref(ptr noundef @initialized_modules)
  store ptr %19, ptr %3, align 8, !tbaa !40
  call void @ossl_rcu_assign_uptr(ptr noundef @initialized_modules, ptr noundef %4)
  %20 = load ptr, ptr @module_list_lock, align 8, !tbaa !31
  call void @ossl_rcu_write_unlock(ptr noundef %20)
  %21 = load ptr, ptr @module_list_lock, align 8, !tbaa !31
  call void @ossl_synchronize_rcu(ptr noundef %21)
  br label %22

22:                                               ; preds = %26, %17
  %23 = load ptr, ptr %3, align 8, !tbaa !40
  %24 = call i32 @sk_CONF_IMODULE_num(ptr noundef %23)
  %25 = icmp sgt i32 %24, 0
  br i1 %25, label %26, label %30

26:                                               ; preds = %22
  %27 = load ptr, ptr %3, align 8, !tbaa !40
  %28 = call ptr @sk_CONF_IMODULE_pop(ptr noundef %27)
  store ptr %28, ptr %2, align 8, !tbaa !42
  %29 = load ptr, ptr %2, align 8, !tbaa !42
  call void @module_finish(ptr noundef %29)
  br label %22, !llvm.loop !44

30:                                               ; preds = %22
  %31 = load ptr, ptr %3, align 8, !tbaa !40
  call void @sk_CONF_IMODULE_free(ptr noundef %31)
  store i32 1, ptr %1, align 4
  store i32 1, ptr %5, align 4
  br label %32

32:                                               ; preds = %30, %16, %12
  call void @llvm.lifetime.end.p0(i64 8, ptr %4) #6
  call void @llvm.lifetime.end.p0(i64 8, ptr %3) #6
  call void @llvm.lifetime.end.p0(i64 8, ptr %2) #6
  %33 = load i32, ptr %1, align 4
  ret i32 %33
}