; Function Attrs: nounwind uwtable
define internal fastcc range(i32 0, 2) i32 @conf_modules_finish_int() unnamed_addr #0 {
  %1 = alloca ptr, align 8
  call void @llvm.lifetime.start.p0(i64 8, ptr nonnull %1) #7
  store ptr null, ptr %1, align 8, !tbaa !32
  %2 = tail call i32 @CRYPTO_THREAD_run_once(ptr noundef nonnull @init_module_list_lock, ptr noundef nonnull @do_init_module_list_lock_ossl_) #7
  %3 = icmp ne i32 %2, 0
  %4 = load i32, ptr @do_init_module_list_lock_ossl_ret_, align 4
  %5 = icmp ne i32 %4, 0
  %or.cond = select i1 %3, i1 %5, i1 false
  br i1 %or.cond, label %6, label %32

6:                                                ; preds = %0
  %7 = load ptr, ptr @module_list_lock, align 8, !tbaa !18
  %8 = icmp eq ptr %7, null
  br i1 %8, label %32, label %9

9:                                                ; preds = %6
  tail call void @ossl_rcu_write_lock(ptr noundef nonnull %7) #7
  %10 = tail call ptr @ossl_rcu_uptr_deref(ptr noundef nonnull @initialized_modules) #7
  call void @ossl_rcu_assign_uptr(ptr noundef nonnull @initialized_modules, ptr noundef nonnull %1) #7
  %11 = load ptr, ptr @module_list_lock, align 8, !tbaa !18
  call void @ossl_rcu_write_unlock(ptr noundef %11) #7
  %12 = load ptr, ptr @module_list_lock, align 8, !tbaa !18
  call void @ossl_synchronize_rcu(ptr noundef %12) #7
  %13 = call i32 @OPENSSL_sk_num(ptr noundef %10) #7
  %14 = icmp sgt i32 %13, 0
  br i1 %14, label %.lr.ph, label %._crit_edge

.lr.ph:                                           ; preds = %9, %module_finish.exit
  %15 = call ptr @OPENSSL_sk_pop(ptr noundef %10) #7
  %.not.i = icmp eq ptr %15, null
  br i1 %.not.i, label %module_finish.exit, label %16

16:                                               ; preds = %.lr.ph
  %17 = load ptr, ptr %15, align 8, !tbaa !25
  %18 = getelementptr inbounds nuw i8, ptr %17, i64 24
  %19 = load ptr, ptr %18, align 8, !tbaa !35
  %.not9.i = icmp eq ptr %19, null
  br i1 %.not9.i, label %21, label %20

20:                                               ; preds = %16
  call void %19(ptr noundef nonnull %15) #7
  %.pre.i = load ptr, ptr %15, align 8, !tbaa !25
  br label %21

21:                                               ; preds = %20, %16
  %22 = phi ptr [ %.pre.i, %20 ], [ %17, %16 ]
  %23 = getelementptr inbounds nuw i8, ptr %22, i64 32
  %24 = load i32, ptr %23, align 8, !tbaa !34
  %25 = add nsw i32 %24, -1
  store i32 %25, ptr %23, align 8, !tbaa !34
  %26 = getelementptr inbounds nuw i8, ptr %15, i64 8
  %27 = load ptr, ptr %26, align 8, !tbaa !28
  call void @CRYPTO_free(ptr noundef %27, ptr noundef nonnull @.str.1, i32 noundef 615) #7
  %28 = getelementptr inbounds nuw i8, ptr %15, i64 16
  %29 = load ptr, ptr %28, align 8, !tbaa !29
  call void @CRYPTO_free(ptr noundef %29, ptr noundef nonnull @.str.1, i32 noundef 616) #7
  call void @CRYPTO_free(ptr noundef nonnull %15, ptr noundef nonnull @.str.1, i32 noundef 617) #7
  br label %module_finish.exit

module_finish.exit:                               ; preds = %.lr.ph, %21
  %30 = call i32 @OPENSSL_sk_num(ptr noundef %10) #7
  %31 = icmp sgt i32 %30, 0
  br i1 %31, label %.lr.ph, label %._crit_edge, !llvm.loop !42

._crit_edge:                                      ; preds = %module_finish.exit, %9
  call void @OPENSSL_sk_free(ptr noundef %10) #7
  br label %32

32:                                               ; preds = %6, %0, %._crit_edge
  %.0 = phi i32 [ 1, %._crit_edge ], [ 0, %0 ], [ 0, %6 ]
  call void @llvm.lifetime.end.p0(i64 8, ptr nonnull %1) #7
  ret i32 %.0
}